target datalayout = "e-m:e-p270:32:32-p271:32:32-p272:64:64-i64:64-i128:128-f80:128-n8:16:32:64-S128"
target triple = "x86_64-pc-linux-gnu"

%struct.H5Z_cb_t = type { ptr, ptr }
%struct.H5T_vlen_alloc_info_t = type { ptr, ptr, ptr, ptr }
%struct.H5T_conv_cb_t = type { ptr, ptr }
%struct.H5P_libclass_t = type { ptr, i32, ptr, ptr, ptr, ptr, ptr, ptr, ptr, ptr, ptr, ptr, ptr }
%struct.H5CX_node_t = type { %struct.H5CX_t, ptr }
%struct.H5CX_t = type { i64, ptr, i64, ptr, i64, ptr, i64, ptr, i64, ptr, i64, ptr, i64, i32, i64, i8, ptr, i8, ptr, i8, i32, i8, [3 x double], i8, i64, i8, i32, i8, %struct.H5Z_cb_t, i8, ptr, i8, %struct.H5T_vlen_alloc_info_t, i8, %struct.H5T_conv_cb_t, i8, i32, i8, i8, i8, i32, i8, i8, i32, i8, i8, i32, i8, i32, i8, i64, i8, i8, i8, i8, i8, ptr, i8, ptr, i8, i32, i8, i32, i8, %struct.H5VL_connector_prop_t, i8, ptr, i8 }
%struct.H5VL_connector_prop_t = type { i64, ptr }

@.str = private unnamed_addr constant [98 x i8] c"generated/home/dtcxzyw/WorkSpace/Projects/compilers/llvm-opt-benchmark/bench/hdf5/hdf5/src/H5CX.c\00", align 1
@H5E_CONTEXT_g = external global i64, align 8
@H5E_CANTGET_g = external global i64, align 8
@H5CX_head_g = internal global ptr null, align 8
@H5P_CLS_LACC = external constant [1 x %struct.H5P_libclass_t], align 16
@__func__.H5CX_set_apl = private unnamed_addr constant [13 x i8] c"H5CX_set_apl\00", align 1
@.str.70 = private unnamed_addr constant [34 x i8] c"can't check for link access class\00", align 1
@H5P_CLS_DACC = external constant [1 x %struct.H5P_libclass_t], align 16
@.str.71 = private unnamed_addr constant [37 x i8] c"can't check for dataset access class\00", align 1
@H5P_CLS_FACC = external constant [1 x %struct.H5P_libclass_t], align 16
@.str.72 = private unnamed_addr constant [34 x i8] c"can't check for file access class\00", align 1

; Function Attrs: nounwind uwtable
define i32 @H5CX_set_apl(ptr noundef %0, ptr noundef %1, i64 noundef %2, i1 noundef zeroext %3) #0 {
  %5 = alloca ptr, align 8
  %6 = alloca ptr, align 8
  %7 = alloca i64, align 8
  %8 = alloca i8, align 1
  %9 = alloca ptr, align 8
  %10 = alloca i32, align 4
  %11 = alloca i8, align 1
  %12 = alloca i32, align 4
  %13 = alloca i32, align 4
  %14 = alloca i32, align 4
  store ptr %0, ptr %5, align 8
  store ptr %1, ptr %6, align 8
  store i64 %2, ptr %7, align 8
  %15 = zext i1 %3 to i8
  store i8 %15, ptr %8, align 1
  store ptr null, ptr %9, align 8
  store i32 0, ptr %10, align 4
  store i8 0, ptr %11, align 1
  store ptr @H5CX_head_g, ptr %9, align 8
  %16 = load ptr, ptr %5, align 8
  %17 = load i64, ptr %16, align 8
  %18 = icmp eq i64 0, %17
  br i1 %18, label %19, label %25

19:                                               ; preds = %4
  %20 = load ptr, ptr %6, align 8
  %21 = getelementptr inbounds %struct.H5P_libclass_t, ptr %20, i32 0, i32 5
  %22 = load ptr, ptr %21, align 8
  %23 = load i64, ptr %22, align 8
  %24 = load ptr, ptr %5, align 8
  store i64 %23, ptr %24, align 8
  br label %131

25:                                               ; preds = %4
  %26 = load ptr, ptr %6, align 8
  %27 = getelementptr inbounds %struct.H5P_libclass_t, ptr %26, i32 0, i32 3
  %28 = load ptr, ptr %27, align 8
  %29 = load ptr, ptr %28, align 8
  %30 = load ptr, ptr getelementptr inbounds (%struct.H5P_libclass_t, ptr @H5P_CLS_LACC, i32 0, i32 3), align 8
  %31 = load ptr, ptr %30, align 8
  %32 = call i32 @H5P_class_isa(ptr noundef %29, ptr noundef %31)
  store i32 %32, ptr %12, align 4
  %33 = icmp slt i32 %32, 0
  br i1 %33, label %34, label %49

34:                                               ; preds = %25
  br label %35

35:                                               ; preds = %34
  br label %36

36:                                               ; preds = %35
  br label %37

37:                                               ; preds = %36
  %38 = load i64, ptr @H5E_CONTEXT_g, align 8
  %39 = load i64, ptr @H5E_CANTGET_g, align 8
  %40 = call i32 (ptr, ptr, i32, i64, i64, ptr, ...) @H5E_printf_stack(ptr noundef @.str, ptr noundef @__func__.H5CX_set_apl, i32 noundef 1363, i64 noundef %38, i64 noundef %39, ptr noundef @.str.70)
  br label %41

41:                                               ; preds = %37
  store i8 1, ptr %11, align 1
  %42 = load i8, ptr %11, align 1
  %43 = trunc i8 %42 to i1
  %44 = zext i1 %43 to i8
  store i8 %44, ptr %11, align 1
  br label %45

45:                                               ; preds = %41
  br label %46

46:                                               ; preds = %45
  store i32 -1, ptr %10, align 4
  br label %132

47:                                               ; No predecessors!
  br label %48

48:                                               ; preds = %47
  br label %60

49:                                               ; preds = %25
  %50 = load i32, ptr %12, align 4
  %51 = icmp ne i32 %50, 0
  br i1 %51, label %52, label %59

52:                                               ; preds = %49
  %53 = load ptr, ptr %5, align 8
  %54 = load i64, ptr %53, align 8
  %55 = load ptr, ptr %9, align 8
  %56 = load ptr, ptr %55, align 8
  %57 = getelementptr inbounds %struct.H5CX_node_t, ptr %56, i32 0, i32 0
  %58 = getelementptr inbounds %struct.H5CX_t, ptr %57, i32 0, i32 4
  store i64 %54, ptr %58, align 8
  br label %59

59:                                               ; preds = %52, %49
  br label %60

60:                                               ; preds = %59, %48
  %61 = load ptr, ptr %6, align 8
  %62 = getelementptr inbounds %struct.H5P_libclass_t, ptr %61, i32 0, i32 3
  %63 = load ptr, ptr %62, align 8
  %64 = load ptr, ptr %63, align 8
  %65 = load ptr, ptr getelementptr inbounds (%struct.H5P_libclass_t, ptr @H5P_CLS_DACC, i32 0, i32 3), align 8
  %66 = load ptr, ptr %65, align 8
  %67 = call i32 @H5P_class_isa(ptr noundef %64, ptr noundef %66)
  store i32 %67, ptr %13, align 4
  %68 = icmp slt i32 %67, 0
  br i1 %68, label %69, label %84

69:                                               ; preds = %60
  br label %70

70:                                               ; preds = %69
  br label %71

71:                                               ; preds = %70
  br label %72

72:                                               ; preds = %71
  %73 = load i64, ptr @H5E_CONTEXT_g, align 8
  %74 = load i64, ptr @H5E_CANTGET_g, align 8
  %75 = call i32 (ptr, ptr, i32, i64, i64, ptr, ...) @H5E_printf_stack(ptr noundef @.str, ptr noundef @__func__.H5CX_set_apl, i32 noundef 1369, i64 noundef %73, i64 noundef %74, ptr noundef @.str.71)
  br label %76

76:                                               ; preds = %72
  store i8 1, ptr %11, align 1
  %77 = load i8, ptr %11, align 1
  %78 = trunc i8 %77 to i1
  %79 = zext i1 %78 to i8
  store i8 %79, ptr %11, align 1
  br label %80

80:                                               ; preds = %76
  br label %81

81:                                               ; preds = %80
  store i32 -1, ptr %10, align 4
  br label %132

82:                                               ; No predecessors!
  br label %83

83:                                               ; preds = %82
  br label %95

84:                                               ; preds = %60
  %85 = load i32, ptr %13, align 4
  %86 = icmp ne i32 %85, 0
  br i1 %86, label %87, label %94

87:                                               ; preds = %84
  %88 = load ptr, ptr %5, align 8
  %89 = load i64, ptr %88, align 8
  %90 = load ptr, ptr %9, align 8
  %91 = load ptr, ptr %90, align 8
  %92 = getelementptr inbounds %struct.H5CX_node_t, ptr %91, i32 0, i32 0
  %93 = getelementptr inbounds %struct.H5CX_t, ptr %92, i32 0, i32 8
  store i64 %89, ptr %93, align 8
  br label %94

94:                                               ; preds = %87, %84
  br label %95

95:                                               ; preds = %94, %83
  %96 = load ptr, ptr %6, align 8
  %97 = getelementptr inbounds %struct.H5P_libclass_t, ptr %96, i32 0, i32 3
  %98 = load ptr, ptr %97, align 8
  %99 = load ptr, ptr %98, align 8
  %100 = load ptr, ptr getelementptr inbounds (%struct.H5P_libclass_t, ptr @H5P_CLS_FACC, i32 0, i32 3), align 8
  %101 = load ptr, ptr %100, align 8
  %102 = call i32 @H5P_class_isa(ptr noundef %99, ptr noundef %101)
  store i32 %102, ptr %14, align 4
  %103 = icmp slt i32 %102, 0
  br i1 %103, label %104, label %119

104:                                              ; preds = %95
  br label %105

105:                                              ; preds = %104
  br label %106

106:                                              ; preds = %105
  br label %107

107:                                              ; preds = %106
  %108 = load i64, ptr @H5E_CONTEXT_g, align 8
  %109 = load i64, ptr @H5E_CANTGET_g, align 8
  %110 = call i32 (ptr, ptr, i32, i64, i64, ptr, ...) @H5E_printf_stack(ptr noundef @.str, ptr noundef @__func__.H5CX_set_apl, i32 noundef 1375, i64 noundef %108, i64 noundef %109, ptr noundef @.str.72)
  br label %111

111:                                              ; preds = %107
  store i8 1, ptr %11, align 1
  %112 = load i8, ptr %11, align 1
  %113 = trunc i8 %112 to i1
  %114 = zext i1 %113 to i8
  store i8 %114, ptr %11, align 1
  br label %115

115:                                              ; preds = %111
  br label %116

116:                                              ; preds = %115
  store i32 -1, ptr %10, align 4
  br label %132

117:                                              ; No predecessors!
  br label %118

118:                                              ; preds = %117
  br label %130

119:                                              ; preds = %95
  %120 = load i32, ptr %14, align 4
  %121 = icmp ne i32 %120, 0
  br i1 %121, label %122, label %129

122:                                              ; preds = %119
  %123 = load ptr, ptr %5, align 8
  %124 = load i64, ptr %123, align 8
  %125 = load ptr, ptr %9, align 8
  %126 = load ptr, ptr %125, align 8
  %127 = getelementptr inbounds %struct.H5CX_node_t, ptr %126, i32 0, i32 0
  %128 = getelementptr inbounds %struct.H5CX_t, ptr %127, i32 0, i32 10
  store i64 %124, ptr %128, align 8
  br label %129

129:                                              ; preds = %122, %119
  br label %130

130:                                              ; preds = %129, %118
  br label %131

131:                                              ; preds = %130, %19
  br label %132

132:                                              ; preds = %131, %116, %81, %46
  %133 = load i32, ptr %10, align 4
  ret i32 %133
}