; Function Attrs: nounwind uwtable
define range(i32 -1, 1) i32 @H5CX_set_apl(ptr nocapture noundef %0, ptr nocapture noundef readonly %1, i64 noundef %2, i1 noundef zeroext %3) local_unnamed_addr #0 {
  %5 = load i64, ptr %0, align 8
  %6 = icmp eq i64 %5, 0
  br i1 %6, label %7, label %11

7:                                                ; preds = %4
  %8 = getelementptr inbounds i8, ptr %1, i64 40
  %9 = load ptr, ptr %8, align 8
  %10 = load i64, ptr %9, align 8
  store i64 %10, ptr %0, align 8
  br label %60

11:                                               ; preds = %4
  %12 = getelementptr inbounds i8, ptr %1, i64 24
  %13 = load ptr, ptr %12, align 8
  %14 = load ptr, ptr %13, align 8
  %15 = load ptr, ptr getelementptr inbounds (i8, ptr @H5P_CLS_LACC, i64 24), align 8
  %16 = load ptr, ptr %15, align 8
  %17 = tail call i32 @H5P_class_isa(ptr noundef %14, ptr noundef %16) #13
  %18 = icmp slt i32 %17, 0
  br i1 %18, label %19, label %23

19:                                               ; preds = %11
  %20 = load i64, ptr @H5E_CONTEXT_g, align 8
  %21 = load i64, ptr @H5E_CANTGET_g, align 8
  %22 = tail call i32 (ptr, ptr, i32, i64, i64, ptr, ...) @H5E_printf_stack(ptr noundef nonnull @.str, ptr noundef nonnull @__func__.H5CX_set_apl, i32 noundef 1363, i64 noundef %20, i64 noundef %21, ptr noundef nonnull @.str.70) #13
  br label %60

23:                                               ; preds = %11
  %.not = icmp eq i32 %17, 0
  br i1 %.not, label %28, label %24

24:                                               ; preds = %23
  %25 = load i64, ptr %0, align 8
  %26 = load ptr, ptr @H5CX_head_g, align 8
  %27 = getelementptr inbounds i8, ptr %26, i64 32
  store i64 %25, ptr %27, align 8
  br label %28

28:                                               ; preds = %23, %24
  %29 = load ptr, ptr %12, align 8
  %30 = load ptr, ptr %29, align 8
  %31 = load ptr, ptr getelementptr inbounds (i8, ptr @H5P_CLS_DACC, i64 24), align 8
  %32 = load ptr, ptr %31, align 8
  %33 = tail call i32 @H5P_class_isa(ptr noundef %30, ptr noundef %32) #13
  %34 = icmp slt i32 %33, 0
  br i1 %34, label %35, label %39

35:                                               ; preds = %28
  %36 = load i64, ptr @H5E_CONTEXT_g, align 8
  %37 = load i64, ptr @H5E_CANTGET_g, align 8
  %38 = tail call i32 (ptr, ptr, i32, i64, i64, ptr, ...) @H5E_printf_stack(ptr noundef nonnull @.str, ptr noundef nonnull @__func__.H5CX_set_apl, i32 noundef 1369, i64 noundef %36, i64 noundef %37, ptr noundef nonnull @.str.71) #13
  br label %60

39:                                               ; preds = %28
  %.not21 = icmp eq i32 %33, 0
  br i1 %.not21, label %44, label %40

40:                                               ; preds = %39
  %41 = load i64, ptr %0, align 8
  %42 = load ptr, ptr @H5CX_head_g, align 8
  %43 = getelementptr inbounds i8, ptr %42, i64 64
  store i64 %41, ptr %43, align 8
  br label %44

44:                                               ; preds = %39, %40
  %45 = load ptr, ptr %12, align 8
  %46 = load ptr, ptr %45, align 8
  %47 = load ptr, ptr getelementptr inbounds (i8, ptr @H5P_CLS_FACC, i64 24), align 8
  %48 = load ptr, ptr %47, align 8
  %49 = tail call i32 @H5P_class_isa(ptr noundef %46, ptr noundef %48) #13
  %50 = icmp slt i32 %49, 0
  br i1 %50, label %51, label %55

51:                                               ; preds = %44
  %52 = load i64, ptr @H5E_CONTEXT_g, align 8
  %53 = load i64, ptr @H5E_CANTGET_g, align 8
  %54 = tail call i32 (ptr, ptr, i32, i64, i64, ptr, ...) @H5E_printf_stack(ptr noundef nonnull @.str, ptr noundef nonnull @__func__.H5CX_set_apl, i32 noundef 1375, i64 noundef %52, i64 noundef %53, ptr noundef nonnull @.str.72) #13
  br label %60

55:                                               ; preds = %44
  %.not22 = icmp eq i32 %49, 0
  br i1 %.not22, label %60, label %56

56:                                               ; preds = %55
  %57 = load i64, ptr %0, align 8
  %58 = load ptr, ptr @H5CX_head_g, align 8
  %59 = getelementptr inbounds i8, ptr %58, i64 80
  store i64 %57, ptr %59, align 8
  br label %60

60:                                               ; preds = %7, %55, %56, %51, %35, %19
  %.0 = phi i32 [ 0, %7 ], [ -1, %19 ], [ -1, %35 ], [ -1, %51 ], [ 0, %56 ], [ 0, %55 ]
  ret i32 %.0
}